target datalayout = "e-m:e-p270:32:32-p271:32:32-p272:64:64-i64:64-i128:128-f80:128-n8:16:32:64-S128"
target triple = "x86_64-pc-linux-gnu"

%struct.__jmp_buf_tag = type { [8 x i64], i32, %struct.__sigset_t }
%struct.__sigset_t = type { [16 x i64] }
%struct.WalReceiverFunctionsType = type { ptr, ptr, ptr, ptr, ptr, ptr, ptr, ptr, ptr, ptr, ptr, ptr, ptr, ptr, ptr, ptr, ptr }
%struct.StringInfoData = type { ptr, i32, i32, i32 }
%struct.WalRcvExecResult = type { i32, i32, ptr, ptr, ptr }

@.str.4 = private unnamed_addr constant [19 x i8] c"subscriptioncmds.c\00", align 1
@.str.9 = private unnamed_addr constant [17 x i8] c"libpqwalreceiver\00", align 1
@WalReceiverFunctions = external global ptr, align 8
@PG_exception_stack = external global ptr, align 8
@error_context_stack = external global ptr, align 8
@.str.44 = private unnamed_addr constant [30 x i8] c"DROP_REPLICATION_SLOT %s WAIT\00", align 1
@.str.45 = private unnamed_addr constant [43 x i8] c"dropped replication slot \22%s\22 on publisher\00", align 1
@__func__.ReplicationSlotDropAtPubNode = private unnamed_addr constant [29 x i8] c"ReplicationSlotDropAtPubNode\00", align 1
@.str.46 = private unnamed_addr constant [54 x i8] c"could not drop replication slot \22%s\22 on publisher: %s\00", align 1

; Function Attrs: inlinehint nounwind uwtable
define internal void @walrcv_clear_result(ptr noundef %0) #5 {
  %2 = alloca ptr, align 8
  store ptr %0, ptr %2, align 8
  %3 = load ptr, ptr %2, align 8
  %4 = icmp ne ptr %3, null
  br i1 %4, label %6, label %5

5:                                                ; preds = %1
  br label %35

6:                                                ; preds = %1
  %7 = load ptr, ptr %2, align 8
  %8 = getelementptr inbounds nuw %struct.WalRcvExecResult, ptr %7, i32 0, i32 2
  %9 = load ptr, ptr %8, align 8
  %10 = icmp ne ptr %9, null
  br i1 %10, label %11, label %15

11:                                               ; preds = %6
  %12 = load ptr, ptr %2, align 8
  %13 = getelementptr inbounds nuw %struct.WalRcvExecResult, ptr %12, i32 0, i32 2
  %14 = load ptr, ptr %13, align 8
  call void @pfree(ptr noundef %14)
  br label %15

15:                                               ; preds = %11, %6
  %16 = load ptr, ptr %2, align 8
  %17 = getelementptr inbounds nuw %struct.WalRcvExecResult, ptr %16, i32 0, i32 3
  %18 = load ptr, ptr %17, align 8
  %19 = icmp ne ptr %18, null
  br i1 %19, label %20, label %24

20:                                               ; preds = %15
  %21 = load ptr, ptr %2, align 8
  %22 = getelementptr inbounds nuw %struct.WalRcvExecResult, ptr %21, i32 0, i32 3
  %23 = load ptr, ptr %22, align 8
  call void @tuplestore_end(ptr noundef %23)
  br label %24

24:                                               ; preds = %20, %15
  %25 = load ptr, ptr %2, align 8
  %26 = getelementptr inbounds nuw %struct.WalRcvExecResult, ptr %25, i32 0, i32 4
  %27 = load ptr, ptr %26, align 8
  %28 = icmp ne ptr %27, null
  br i1 %28, label %29, label %33

29:                                               ; preds = %24
  %30 = load ptr, ptr %2, align 8
  %31 = getelementptr inbounds nuw %struct.WalRcvExecResult, ptr %30, i32 0, i32 4
  %32 = load ptr, ptr %31, align 8
  call void @FreeTupleDesc(ptr noundef %32)
  br label %33

33:                                               ; preds = %29, %24
  %34 = load ptr, ptr %2, align 8
  call void @pfree(ptr noundef %34)
  br label %35

35:                                               ; preds = %33, %5
  ret void
}

; Function Attrs: nounwind uwtable
define dso_local void @ReplicationSlotDropAtPubNode(ptr noundef %0, ptr noundef %1, i1 noundef zeroext %2) #0 {
  %4 = alloca ptr, align 8
  %5 = alloca ptr, align 8
  %6 = alloca i8, align 1
  %7 = alloca %struct.StringInfoData, align 8
  %8 = alloca ptr, align 8
  %9 = alloca ptr, align 8
  %10 = alloca [1 x %struct.__jmp_buf_tag], align 16
  %11 = alloca i8, align 1
  %12 = alloca ptr, align 8
  store ptr %0, ptr %4, align 8
  store ptr %1, ptr %5, align 8
  %13 = zext i1 %2 to i8
  store i8 %13, ptr %6, align 1
  call void @llvm.lifetime.start.p0(i64 24, ptr %7) #10
  call void @load_file(ptr noundef @.str.9, i1 noundef zeroext false)
  call void @initStringInfo(ptr noundef %7)
  %14 = load ptr, ptr %5, align 8
  %15 = call ptr @quote_identifier(ptr noundef %14)
  call void (ptr, ptr, ...) @appendStringInfo(ptr noundef %7, ptr noundef @.str.44, ptr noundef %15)
  br label %16

16:                                               ; preds = %3
  call void @llvm.lifetime.start.p0(i64 8, ptr %8) #10
  %17 = load ptr, ptr @PG_exception_stack, align 8
  store ptr %17, ptr %8, align 8
  call void @llvm.lifetime.start.p0(i64 8, ptr %9) #10
  %18 = load ptr, ptr @error_context_stack, align 8
  store ptr %18, ptr %9, align 8
  call void @llvm.lifetime.start.p0(i64 200, ptr %10) #10
  call void @llvm.lifetime.start.p0(i64 1, ptr %11) #10
  store i8 0, ptr %11, align 1
  %19 = getelementptr inbounds [1 x %struct.__jmp_buf_tag], ptr %10, i64 0, i64 0
  %20 = call i32 @__sigsetjmp(ptr noundef %19, i32 noundef 0) #12
  %21 = icmp eq i32 %20, 0
  br i1 %21, label %22, label %93

22:                                               ; preds = %16
  store ptr %10, ptr @PG_exception_stack, align 8
  call void @llvm.lifetime.start.p0(i64 8, ptr %12) #10
  %23 = load ptr, ptr @WalReceiverFunctions, align 8
  %24 = getelementptr inbounds nuw %struct.WalReceiverFunctionsType, ptr %23, i32 0, i32 15
  %25 = load ptr, ptr %24, align 8
  %26 = load ptr, ptr %4, align 8
  %27 = getelementptr inbounds nuw %struct.StringInfoData, ptr %7, i32 0, i32 0
  %28 = load ptr, ptr %27, align 8
  %29 = call ptr %25(ptr noundef %26, ptr noundef %28, i32 noundef 0, ptr noundef null)
  store ptr %29, ptr %12, align 8
  %30 = load ptr, ptr %12, align 8
  %31 = getelementptr inbounds nuw %struct.WalRcvExecResult, ptr %30, i32 0, i32 0
  %32 = load i32, ptr %31, align 8
  %33 = icmp eq i32 %32, 1
  br i1 %33, label %34, label %46

34:                                               ; preds = %22
  br label %35

35:                                               ; preds = %34
  br i1 false, label %36, label %38

36:                                               ; preds = %35
  %37 = call zeroext i1 @errstart_cold(i32 noundef 18, ptr noundef null) #11
  br i1 %37, label %40, label %43

38:                                               ; preds = %35
  %39 = call zeroext i1 @errstart(i32 noundef 18, ptr noundef null)
  br i1 %39, label %40, label %43

40:                                               ; preds = %38, %36
  %41 = load ptr, ptr %5, align 8
  %42 = call i32 (ptr, ...) @errmsg(ptr noundef @.str.45, ptr noundef %41)
  call void @errfinish(ptr noundef @.str.4, i32 noundef 1935, ptr noundef @__func__.ReplicationSlotDropAtPubNode)
  br label %43

43:                                               ; preds = %40, %38, %36
  br label %44

44:                                               ; preds = %43
  br label %45

45:                                               ; preds = %44
  br label %91

46:                                               ; preds = %22
  %47 = load ptr, ptr %12, align 8
  %48 = getelementptr inbounds nuw %struct.WalRcvExecResult, ptr %47, i32 0, i32 0
  %49 = load i32, ptr %48, align 8
  %50 = icmp eq i32 %49, 0
  br i1 %50, label %51, label %74

51:                                               ; preds = %46
  %52 = load i8, ptr %6, align 1, !range !4, !noundef !5
  %53 = trunc i8 %52 to i1
  br i1 %53, label %54, label %74

54:                                               ; preds = %51
  %55 = load ptr, ptr %12, align 8
  %56 = getelementptr inbounds nuw %struct.WalRcvExecResult, ptr %55, i32 0, i32 1
  %57 = load i32, ptr %56, align 4
  %58 = icmp eq i32 %57, 67137668
  br i1 %58, label %59, label %74

59:                                               ; preds = %54
  br label %60

60:                                               ; preds = %59
  br i1 false, label %61, label %63

61:                                               ; preds = %60
  %62 = call zeroext i1 @errstart_cold(i32 noundef 15, ptr noundef null) #11
  br i1 %62, label %65, label %71

63:                                               ; preds = %60
  %64 = call zeroext i1 @errstart(i32 noundef 15, ptr noundef null)
  br i1 %64, label %65, label %71

65:                                               ; preds = %63, %61
  %66 = load ptr, ptr %5, align 8
  %67 = load ptr, ptr %12, align 8
  %68 = getelementptr inbounds nuw %struct.WalRcvExecResult, ptr %67, i32 0, i32 2
  %69 = load ptr, ptr %68, align 8
  %70 = call i32 (ptr, ...) @errmsg(ptr noundef @.str.46, ptr noundef %66, ptr noundef %69)
  call void @errfinish(ptr noundef @.str.4, i32 noundef 1944, ptr noundef @__func__.ReplicationSlotDropAtPubNode)
  br label %71

71:                                               ; preds = %65, %63, %61
  br label %72

72:                                               ; preds = %71
  br label %73

73:                                               ; preds = %72
  br label %90

74:                                               ; preds = %54, %51, %46
  br label %75

75:                                               ; preds = %74
  br i1 true, label %76, label %78

76:                                               ; preds = %75
  %77 = call zeroext i1 @errstart_cold(i32 noundef 21, ptr noundef null) #11
  br i1 %77, label %80, label %87

78:                                               ; preds = %75
  %79 = call zeroext i1 @errstart(i32 noundef 21, ptr noundef null)
  br i1 %79, label %80, label %87

80:                                               ; preds = %78, %76
  %81 = call i32 @errcode(i32 noundef 100663808)
  %82 = load ptr, ptr %5, align 8
  %83 = load ptr, ptr %12, align 8
  %84 = getelementptr inbounds nuw %struct.WalRcvExecResult, ptr %83, i32 0, i32 2
  %85 = load ptr, ptr %84, align 8
  %86 = call i32 (ptr, ...) @errmsg(ptr noundef @.str.46, ptr noundef %82, ptr noundef %85)
  call void @errfinish(ptr noundef @.str.4, i32 noundef 1952, ptr noundef @__func__.ReplicationSlotDropAtPubNode)
  br label %87

87:                                               ; preds = %80, %78, %76
  unreachable

88:                                               ; No predecessors!
  br label %89

89:                                               ; preds = %88
  br label %90

90:                                               ; preds = %89, %73
  br label %91

91:                                               ; preds = %90, %45
  %92 = load ptr, ptr %12, align 8
  call void @walrcv_clear_result(ptr noundef %92)
  call void @llvm.lifetime.end.p0(i64 8, ptr %12) #10
  br label %94

93:                                               ; preds = %16
  store i8 1, ptr %11, align 1
  br label %94

94:                                               ; preds = %93, %91
  %95 = load ptr, ptr %8, align 8
  store ptr %95, ptr @PG_exception_stack, align 8
  %96 = load ptr, ptr %9, align 8
  store ptr %96, ptr @error_context_stack, align 8
  %97 = getelementptr inbounds nuw %struct.StringInfoData, ptr %7, i32 0, i32 0
  %98 = load ptr, ptr %97, align 8
  call void @pfree(ptr noundef %98)
  %99 = load i8, ptr %11, align 1, !range !4, !noundef !5
  %100 = trunc i8 %99 to i1
  br i1 %100, label %101, label %102

101:                                              ; preds = %94
  call void @pg_re_throw() #13
  unreachable

102:                                              ; preds = %94
  %103 = load ptr, ptr %8, align 8
  store ptr %103, ptr @PG_exception_stack, align 8
  %104 = load ptr, ptr %9, align 8
  store ptr %104, ptr @error_context_stack, align 8
  call void @llvm.lifetime.end.p0(i64 1, ptr %11) #10
  call void @llvm.lifetime.end.p0(i64 200, ptr %10) #10
  call void @llvm.lifetime.end.p0(i64 8, ptr %9) #10
  call void @llvm.lifetime.end.p0(i64 8, ptr %8) #10
  br label %105

105:                                              ; preds = %102
  br label %106

106:                                              ; preds = %105
  call void @llvm.lifetime.end.p0(i64 24, ptr %7) #10
  ret void
}