; Function Attrs: nounwind uwtable
define dso_local void @ReplicationSlotDropAtPubNode(ptr noundef %0, ptr noundef %1, i1 noundef zeroext %2) local_unnamed_addr #0 {
  %4 = alloca %struct.StringInfoData, align 8
  %5 = alloca [1 x %struct.__jmp_buf_tag], align 16
  call void @llvm.lifetime.start.p0(i64 24, ptr nonnull %4) #10
  call void @load_file(ptr noundef nonnull @.str.9, i1 noundef zeroext false) #10
  call void @initStringInfo(ptr noundef nonnull %4) #10
  %6 = call ptr @quote_identifier(ptr noundef %1) #10
  call void (ptr, ptr, ...) @appendStringInfo(ptr noundef nonnull %4, ptr noundef nonnull @.str.44, ptr noundef %6) #10
  %7 = load ptr, ptr @PG_exception_stack, align 8
  %8 = load ptr, ptr @error_context_stack, align 8
  call void @llvm.lifetime.start.p0(i64 200, ptr nonnull %5) #10
  %9 = call i32 @__sigsetjmp(ptr noundef nonnull %5, i32 noundef 0) #12
  %.not = icmp eq i32 %9, 0
  br i1 %.not, label %10, label %50

10:                                               ; preds = %3
  store ptr %5, ptr @PG_exception_stack, align 8
  %11 = load ptr, ptr @WalReceiverFunctions, align 8
  %12 = getelementptr inbounds nuw i8, ptr %11, i64 120
  %13 = load ptr, ptr %12, align 8
  %14 = load ptr, ptr %4, align 8
  %15 = call ptr %13(ptr noundef %0, ptr noundef %14, i32 noundef 0, ptr noundef null) #10
  %16 = load i32, ptr %15, align 8
  switch i32 %16, label %32 [
    i32 1, label %17
    i32 0, label %21
  ]

17:                                               ; preds = %10
  %18 = call zeroext i1 @errstart(i32 noundef 18, ptr noundef null) #10
  br i1 %18, label %19, label %38

19:                                               ; preds = %17
  %20 = call i32 (ptr, ...) @errmsg(ptr noundef nonnull @.str.45, ptr noundef %1) #10
  br label %.sink.split

21:                                               ; preds = %10
  br i1 %2, label %22, label %32

22:                                               ; preds = %21
  %23 = getelementptr inbounds nuw i8, ptr %15, i64 4
  %24 = load i32, ptr %23, align 4
  %25 = icmp eq i32 %24, 67137668
  br i1 %25, label %26, label %32

26:                                               ; preds = %22
  %27 = call zeroext i1 @errstart(i32 noundef 15, ptr noundef null) #10
  br i1 %27, label %28, label %38

28:                                               ; preds = %26
  %29 = getelementptr inbounds nuw i8, ptr %15, i64 8
  %30 = load ptr, ptr %29, align 8
  %31 = call i32 (ptr, ...) @errmsg(ptr noundef nonnull @.str.46, ptr noundef %1, ptr noundef %30) #10
  br label %.sink.split

32:                                               ; preds = %10, %22, %21
  %33 = call zeroext i1 @errstart_cold(i32 noundef 21, ptr noundef null) #11
  call void @llvm.assume(i1 %33)
  %34 = call i32 @errcode(i32 noundef 100663808) #10
  %35 = getelementptr inbounds nuw i8, ptr %15, i64 8
  %36 = load ptr, ptr %35, align 8
  %37 = call i32 (ptr, ...) @errmsg(ptr noundef nonnull @.str.46, ptr noundef %1, ptr noundef %36) #10
  call void @errfinish(ptr noundef nonnull @.str.4, i32 noundef 1952, ptr noundef nonnull @__func__.ReplicationSlotDropAtPubNode) #10
  unreachable

.sink.split:                                      ; preds = %28, %19
  %.sink = phi i32 [ 1935, %19 ], [ 1944, %28 ]
  call void @errfinish(ptr noundef nonnull @.str.4, i32 noundef %.sink, ptr noundef nonnull @__func__.ReplicationSlotDropAtPubNode) #10
  br label %38

38:                                               ; preds = %.sink.split, %17, %26
  %39 = getelementptr inbounds nuw i8, ptr %15, i64 8
  %40 = load ptr, ptr %39, align 8
  %.not11.i = icmp eq ptr %40, null
  br i1 %.not11.i, label %42, label %41

41:                                               ; preds = %38
  call void @pfree(ptr noundef nonnull %40) #10
  br label %42

42:                                               ; preds = %41, %38
  %43 = getelementptr inbounds nuw i8, ptr %15, i64 16
  %44 = load ptr, ptr %43, align 8
  %.not12.i = icmp eq ptr %44, null
  br i1 %.not12.i, label %46, label %45

45:                                               ; preds = %42
  call void @tuplestore_end(ptr noundef nonnull %44) #10
  br label %46

46:                                               ; preds = %45, %42
  %47 = getelementptr inbounds nuw i8, ptr %15, i64 24
  %48 = load ptr, ptr %47, align 8
  %.not13.i = icmp eq ptr %48, null
  br i1 %.not13.i, label %52, label %49

49:                                               ; preds = %46
  call void @FreeTupleDesc(ptr noundef nonnull %48) #10
  br label %52

50:                                               ; preds = %3
  store ptr %7, ptr @PG_exception_stack, align 8
  store ptr %8, ptr @error_context_stack, align 8
  %51 = load ptr, ptr %4, align 8
  call void @pfree(ptr noundef %51) #10
  call void @pg_re_throw() #13
  unreachable

52:                                               ; preds = %49, %46
  call void @pfree(ptr noundef nonnull %15) #10
  store ptr %7, ptr @PG_exception_stack, align 8
  store ptr %8, ptr @error_context_stack, align 8
  %53 = load ptr, ptr %4, align 8
  call void @pfree(ptr noundef %53) #10
  store ptr %7, ptr @PG_exception_stack, align 8
  store ptr %8, ptr @error_context_stack, align 8
  call void @llvm.lifetime.end.p0(i64 200, ptr nonnull %5) #10
  call void @llvm.lifetime.end.p0(i64 24, ptr nonnull %4) #10
  ret void
}